target datalayout = "e-m:e-p270:32:32-p271:32:32-p272:64:64-i64:64-i128:128-f80:128-n8:16:32:64-S128"
target triple = "x86_64-pc-linux-gnu"

%struct.function_st = type { i32, ptr, ptr, ptr, ptr, ptr }

@bio_out = dso_local global ptr null, align 8
@bio_err = dso_local global ptr null, align 8
@.str.24 = private unnamed_addr constant [2 x i8] c"\0A\00", align 1
@.str.31 = private unnamed_addr constant [4 x i8] c"no-\00", align 1
@.str.32 = private unnamed_addr constant [4 x i8] c"%s\0A\00", align 1
@.str.33 = private unnamed_addr constant [47 x i8] c"Invalid command '%s'; type \22help\22 for a list.\0A\00", align 1
@.str.34 = private unnamed_addr constant [45 x i8] c"The command %s was deprecated in version %s.\00", align 1
@.str.35 = private unnamed_addr constant [30 x i8] c"The command %s is deprecated.\00", align 1
@.str.36 = private unnamed_addr constant [8 x i8] c"unknown\00", align 1
@.str.37 = private unnamed_addr constant [19 x i8] c" Use '%s' instead.\00", align 1

; Function Attrs: nounwind uwtable
define internal void @warn_deprecated(ptr noundef %0) #0 {
  %2 = alloca ptr, align 8
  store ptr %0, ptr %2, align 8, !tbaa !23
  %3 = load ptr, ptr %2, align 8, !tbaa !23
  %4 = getelementptr inbounds nuw %struct.function_st, ptr %3, i32 0, i32 5
  %5 = load ptr, ptr %4, align 8, !tbaa !38
  %6 = icmp ne ptr %5, null
  br i1 %6, label %7, label %16

7:                                                ; preds = %1
  %8 = load ptr, ptr @bio_err, align 8, !tbaa !16
  %9 = load ptr, ptr %2, align 8, !tbaa !23
  %10 = getelementptr inbounds nuw %struct.function_st, ptr %9, i32 0, i32 1
  %11 = load ptr, ptr %10, align 8, !tbaa !20
  %12 = load ptr, ptr %2, align 8, !tbaa !23
  %13 = getelementptr inbounds nuw %struct.function_st, ptr %12, i32 0, i32 5
  %14 = load ptr, ptr %13, align 8, !tbaa !38
  %15 = call i32 (ptr, ptr, ...) @BIO_printf(ptr noundef %8, ptr noundef @.str.34, ptr noundef %11, ptr noundef %14)
  br label %22

16:                                               ; preds = %1
  %17 = load ptr, ptr @bio_err, align 8, !tbaa !16
  %18 = load ptr, ptr %2, align 8, !tbaa !23
  %19 = getelementptr inbounds nuw %struct.function_st, ptr %18, i32 0, i32 1
  %20 = load ptr, ptr %19, align 8, !tbaa !20
  %21 = call i32 (ptr, ptr, ...) @BIO_printf(ptr noundef %17, ptr noundef @.str.35, ptr noundef %20)
  br label %22

22:                                               ; preds = %16, %7
  %23 = load ptr, ptr %2, align 8, !tbaa !23
  %24 = getelementptr inbounds nuw %struct.function_st, ptr %23, i32 0, i32 4
  %25 = load ptr, ptr %24, align 8, !tbaa !32
  %26 = call i32 @strcmp(ptr noundef %25, ptr noundef @.str.36) #9
  %27 = icmp ne i32 %26, 0
  br i1 %27, label %28, label %34

28:                                               ; preds = %22
  %29 = load ptr, ptr @bio_err, align 8, !tbaa !16
  %30 = load ptr, ptr %2, align 8, !tbaa !23
  %31 = getelementptr inbounds nuw %struct.function_st, ptr %30, i32 0, i32 4
  %32 = load ptr, ptr %31, align 8, !tbaa !32
  %33 = call i32 (ptr, ptr, ...) @BIO_printf(ptr noundef %29, ptr noundef @.str.37, ptr noundef %32)
  br label %34

34:                                               ; preds = %28, %22
  %35 = load ptr, ptr @bio_err, align 8, !tbaa !16
  %36 = call i32 (ptr, ptr, ...) @BIO_printf(ptr noundef %35, ptr noundef @.str.24)
  ret void
}

; Function Attrs: inlinehint nounwind uwtable
define internal ptr @lh_FUNCTION_retrieve(ptr noundef %0, ptr noundef %1) #3 {
  %3 = alloca ptr, align 8
  %4 = alloca ptr, align 8
  store ptr %0, ptr %3, align 8, !tbaa !11
  store ptr %1, ptr %4, align 8, !tbaa !23
  %5 = load ptr, ptr %3, align 8, !tbaa !11
  %6 = load ptr, ptr %4, align 8, !tbaa !23
  %7 = call ptr @OPENSSL_LH_retrieve(ptr noundef %5, ptr noundef %6)
  ret ptr %7
}

; Function Attrs: nounwind uwtable
define internal i32 @do_cmd(ptr noundef %0, i32 noundef %1, ptr noundef %2) #0 {
  %4 = alloca i32, align 4
  %5 = alloca ptr, align 8
  %6 = alloca i32, align 4
  %7 = alloca ptr, align 8
  %8 = alloca %struct.function_st, align 8
  %9 = alloca ptr, align 8
  %10 = alloca i32, align 4
  store ptr %0, ptr %5, align 8, !tbaa !11
  store i32 %1, ptr %6, align 4, !tbaa !4
  store ptr %2, ptr %7, align 8, !tbaa !8
  call void @llvm.lifetime.start.p0(i64 48, ptr %8) #8
  call void @llvm.lifetime.start.p0(i64 8, ptr %9) #8
  %11 = load i32, ptr %6, align 4, !tbaa !4
  %12 = icmp sle i32 %11, 0
  br i1 %12, label %18, label %13

13:                                               ; preds = %3
  %14 = load ptr, ptr %7, align 8, !tbaa !8
  %15 = getelementptr inbounds ptr, ptr %14, i64 0
  %16 = load ptr, ptr %15, align 8, !tbaa !18
  %17 = icmp eq ptr %16, null
  br i1 %17, label %18, label %19

18:                                               ; preds = %13, %3
  store i32 0, ptr %4, align 4
  store i32 1, ptr %10, align 4
  br label %102

19:                                               ; preds = %13
  call void @llvm.memset.p0.i64(ptr align 8 %8, i8 0, i64 48, i1 false)
  %20 = load ptr, ptr %7, align 8, !tbaa !8
  %21 = getelementptr inbounds ptr, ptr %20, i64 0
  %22 = load ptr, ptr %21, align 8, !tbaa !18
  %23 = getelementptr inbounds nuw %struct.function_st, ptr %8, i32 0, i32 1
  store ptr %22, ptr %23, align 8, !tbaa !20
  %24 = load ptr, ptr %5, align 8, !tbaa !11
  %25 = call ptr @lh_FUNCTION_retrieve(ptr noundef %24, ptr noundef %8)
  store ptr %25, ptr %9, align 8, !tbaa !23
  %26 = load ptr, ptr %9, align 8, !tbaa !23
  %27 = icmp eq ptr %26, null
  br i1 %27, label %28, label %48

28:                                               ; preds = %19
  %29 = load ptr, ptr %7, align 8, !tbaa !8
  %30 = getelementptr inbounds ptr, ptr %29, i64 0
  %31 = load ptr, ptr %30, align 8, !tbaa !18
  %32 = call ptr @EVP_get_digestbyname(ptr noundef %31)
  %33 = icmp ne ptr %32, null
  br i1 %33, label %34, label %37

34:                                               ; preds = %28
  %35 = getelementptr inbounds nuw %struct.function_st, ptr %8, i32 0, i32 0
  store i32 2, ptr %35, align 8, !tbaa !30
  %36 = getelementptr inbounds nuw %struct.function_st, ptr %8, i32 0, i32 2
  store ptr @dgst_main, ptr %36, align 8, !tbaa !31
  store ptr %8, ptr %9, align 8, !tbaa !23
  br label %47

37:                                               ; preds = %28
  %38 = load ptr, ptr %7, align 8, !tbaa !8
  %39 = getelementptr inbounds ptr, ptr %38, i64 0
  %40 = load ptr, ptr %39, align 8, !tbaa !18
  %41 = call ptr @EVP_get_cipherbyname(ptr noundef %40)
  %42 = icmp ne ptr %41, null
  br i1 %42, label %43, label %46

43:                                               ; preds = %37
  %44 = getelementptr inbounds nuw %struct.function_st, ptr %8, i32 0, i32 0
  store i32 3, ptr %44, align 8, !tbaa !30
  %45 = getelementptr inbounds nuw %struct.function_st, ptr %8, i32 0, i32 2
  store ptr @enc_main, ptr %45, align 8, !tbaa !31
  store ptr %8, ptr %9, align 8, !tbaa !23
  br label %46

46:                                               ; preds = %43, %37
  br label %47

47:                                               ; preds = %46, %34
  br label %48

48:                                               ; preds = %47, %19
  %49 = load ptr, ptr %9, align 8, !tbaa !23
  %50 = icmp ne ptr %49, null
  br i1 %50, label %51, label %65

51:                                               ; preds = %48
  %52 = load ptr, ptr %9, align 8, !tbaa !23
  %53 = getelementptr inbounds nuw %struct.function_st, ptr %52, i32 0, i32 4
  %54 = load ptr, ptr %53, align 8, !tbaa !32
  %55 = icmp ne ptr %54, null
  br i1 %55, label %56, label %58

56:                                               ; preds = %51
  %57 = load ptr, ptr %9, align 8, !tbaa !23
  call void @warn_deprecated(ptr noundef %57)
  br label %58

58:                                               ; preds = %56, %51
  %59 = load ptr, ptr %9, align 8, !tbaa !23
  %60 = getelementptr inbounds nuw %struct.function_st, ptr %59, i32 0, i32 2
  %61 = load ptr, ptr %60, align 8, !tbaa !31
  %62 = load i32, ptr %6, align 4, !tbaa !4
  %63 = load ptr, ptr %7, align 8, !tbaa !8
  %64 = call i32 %61(i32 noundef %62, ptr noundef %63)
  store i32 %64, ptr %4, align 4
  store i32 1, ptr %10, align 4
  br label %102

65:                                               ; preds = %48
  %66 = load ptr, ptr %7, align 8, !tbaa !8
  %67 = getelementptr inbounds ptr, ptr %66, i64 0
  %68 = load ptr, ptr %67, align 8, !tbaa !18
  %69 = getelementptr inbounds nuw %struct.function_st, ptr %8, i32 0, i32 1
  store ptr %68, ptr %69, align 8, !tbaa !20
  %70 = getelementptr inbounds nuw %struct.function_st, ptr %8, i32 0, i32 1
  %71 = load ptr, ptr %70, align 8, !tbaa !20
  %72 = call i32 @strncmp(ptr noundef %71, ptr noundef @.str.31, i64 noundef 3) #9
  %73 = icmp eq i32 %72, 0
  br i1 %73, label %74, label %78

74:                                               ; preds = %65
  %75 = getelementptr inbounds nuw %struct.function_st, ptr %8, i32 0, i32 1
  %76 = load ptr, ptr %75, align 8, !tbaa !20
  %77 = getelementptr inbounds nuw i8, ptr %76, i64 3
  store ptr %77, ptr %75, align 8, !tbaa !20
  br i1 true, label %79, label %96

78:                                               ; preds = %65
  br i1 false, label %79, label %96

79:                                               ; preds = %78, %74
  %80 = load ptr, ptr %5, align 8, !tbaa !11
  %81 = call ptr @lh_FUNCTION_retrieve(ptr noundef %80, ptr noundef %8)
  %82 = icmp eq ptr %81, null
  br i1 %82, label %83, label %89

83:                                               ; preds = %79
  %84 = load ptr, ptr @bio_out, align 8, !tbaa !16
  %85 = load ptr, ptr %7, align 8, !tbaa !8
  %86 = getelementptr inbounds ptr, ptr %85, i64 0
  %87 = load ptr, ptr %86, align 8, !tbaa !18
  %88 = call i32 (ptr, ptr, ...) @BIO_printf(ptr noundef %84, ptr noundef @.str.32, ptr noundef %87)
  store i32 0, ptr %4, align 4
  store i32 1, ptr %10, align 4
  br label %102

89:                                               ; preds = %79
  %90 = load ptr, ptr @bio_out, align 8, !tbaa !16
  %91 = load ptr, ptr %7, align 8, !tbaa !8
  %92 = getelementptr inbounds ptr, ptr %91, i64 0
  %93 = load ptr, ptr %92, align 8, !tbaa !18
  %94 = getelementptr inbounds i8, ptr %93, i64 3
  %95 = call i32 (ptr, ptr, ...) @BIO_printf(ptr noundef %90, ptr noundef @.str.32, ptr noundef %94)
  store i32 1, ptr %4, align 4
  store i32 1, ptr %10, align 4
  br label %102

96:                                               ; preds = %78, %74
  %97 = load ptr, ptr @bio_err, align 8, !tbaa !16
  %98 = load ptr, ptr %7, align 8, !tbaa !8
  %99 = getelementptr inbounds ptr, ptr %98, i64 0
  %100 = load ptr, ptr %99, align 8, !tbaa !18
  %101 = call i32 (ptr, ptr, ...) @BIO_printf(ptr noundef %97, ptr noundef @.str.33, ptr noundef %100)
  store i32 1, ptr %4, align 4
  store i32 1, ptr %10, align 4
  br label %102

102:                                              ; preds = %96, %89, %83, %58, %18
  call void @llvm.lifetime.end.p0(i64 8, ptr %9) #8
  call void @llvm.lifetime.end.p0(i64 48, ptr %8) #8
  %103 = load i32, ptr %4, align 4
  ret i32 %103
}