; Function Attrs: nounwind uwtable
define internal fastcc i32 @do_cmd(ptr noundef %0, i32 noundef range(i32 1, 0) %1, ptr noundef %2) unnamed_addr #3 {
  %4 = alloca %struct.function_st, align 8
  call void @llvm.lifetime.start.p0(i64 48, ptr nonnull %4) #12
  %5 = icmp slt i32 %1, 1
  br i1 %5, label %65, label %6

6:                                                ; preds = %3
  %7 = load ptr, ptr %2, align 8, !tbaa !9
  %8 = icmp eq ptr %7, null
  br i1 %8, label %65, label %9

9:                                                ; preds = %6
  call void @llvm.memset.p0.i64(ptr noundef nonnull align 8 dereferenceable(48) %4, i8 0, i64 48, i1 false)
  %10 = getelementptr inbounds nuw i8, ptr %4, i64 8
  store ptr %7, ptr %10, align 8, !tbaa !11
  %11 = call ptr @OPENSSL_LH_retrieve(ptr noundef %0, ptr noundef nonnull %4) #12
  %12 = icmp eq ptr %11, null
  br i1 %12, label %13, label %20

13:                                               ; preds = %9
  %14 = load ptr, ptr %2, align 8, !tbaa !9
  %15 = call ptr @EVP_get_digestbyname(ptr noundef %14) #12
  %.not = icmp eq ptr %15, null
  br i1 %.not, label %16, label %.sink.split

16:                                               ; preds = %13
  %17 = load ptr, ptr %2, align 8, !tbaa !9
  %18 = call ptr @EVP_get_cipherbyname(ptr noundef %17) #12
  %.not21 = icmp eq ptr %18, null
  br i1 %.not21, label %sub_0, label %.sink.split

.sink.split:                                      ; preds = %16, %13
  %.sink = phi i32 [ 2, %13 ], [ 3, %16 ]
  %dgst_main.sink = phi ptr [ @dgst_main, %13 ], [ @enc_main, %16 ]
  store i32 %.sink, ptr %4, align 8, !tbaa !20
  %19 = getelementptr inbounds nuw i8, ptr %4, i64 16
  store ptr %dgst_main.sink, ptr %19, align 8, !tbaa !21
  br label %20

20:                                               ; preds = %.sink.split, %9
  %.0.ph = phi ptr [ %11, %9 ], [ %4, %.sink.split ]
  %21 = getelementptr inbounds nuw i8, ptr %.0.ph, i64 32
  %22 = load ptr, ptr %21, align 8, !tbaa !22
  %.not23 = icmp eq ptr %22, null
  br i1 %.not23, label %41, label %23

23:                                               ; preds = %20
  %24 = getelementptr inbounds nuw i8, ptr %.0.ph, i64 40
  %25 = load ptr, ptr %24, align 8, !tbaa !23
  %.not.i = icmp eq ptr %25, null
  %26 = load ptr, ptr @bio_err, align 8, !tbaa !4
  %27 = getelementptr inbounds nuw i8, ptr %.0.ph, i64 8
  %28 = load ptr, ptr %27, align 8, !tbaa !11
  br i1 %.not.i, label %31, label %29

29:                                               ; preds = %23
  %30 = call i32 (ptr, ptr, ...) @BIO_printf(ptr noundef %26, ptr noundef nonnull @.str.34, ptr noundef %28, ptr noundef nonnull %25) #12
  br label %33

31:                                               ; preds = %23
  %32 = call i32 (ptr, ptr, ...) @BIO_printf(ptr noundef %26, ptr noundef nonnull @.str.35, ptr noundef %28) #12
  br label %33

33:                                               ; preds = %31, %29
  %34 = load ptr, ptr %21, align 8, !tbaa !22
  %35 = call i32 @strcmp(ptr noundef nonnull dereferenceable(1) %34, ptr noundef nonnull dereferenceable(8) @.str.36) #13
  %.not6.i = icmp eq i32 %35, 0
  br i1 %.not6.i, label %warn_deprecated.exit, label %36

36:                                               ; preds = %33
  %37 = load ptr, ptr @bio_err, align 8, !tbaa !4
  %38 = call i32 (ptr, ptr, ...) @BIO_printf(ptr noundef %37, ptr noundef nonnull @.str.37, ptr noundef nonnull %34) #12
  br label %warn_deprecated.exit

warn_deprecated.exit:                             ; preds = %33, %36
  %39 = load ptr, ptr @bio_err, align 8, !tbaa !4
  %40 = call i32 (ptr, ptr, ...) @BIO_printf(ptr noundef %39, ptr noundef nonnull @.str.24) #12
  br label %41

41:                                               ; preds = %warn_deprecated.exit, %20
  %42 = getelementptr inbounds nuw i8, ptr %.0.ph, i64 16
  %43 = load ptr, ptr %42, align 8, !tbaa !21
  %44 = call i32 %43(i32 noundef %1, ptr noundef nonnull %2) #12
  br label %65

sub_0:                                            ; preds = %16
  %45 = load ptr, ptr %2, align 8, !tbaa !9
  store ptr %45, ptr %10, align 8, !tbaa !11
  %46 = load i8, ptr %45, align 1
  %.not27 = icmp eq i8 %46, 110
  br i1 %.not27, label %sub_1, label %.tail.thread

sub_1:                                            ; preds = %sub_0
  %47 = getelementptr inbounds nuw i8, ptr %45, i64 1
  %48 = load i8, ptr %47, align 1
  %.not28 = icmp eq i8 %48, 111
  br i1 %.not28, label %.tail, label %.tail.thread

.tail:                                            ; preds = %sub_1
  %49 = getelementptr inbounds nuw i8, ptr %45, i64 2
  %50 = load i8, ptr %49, align 1
  %51 = icmp eq i8 %50, 45
  br i1 %51, label %52, label %.tail.thread

52:                                               ; preds = %.tail
  %53 = getelementptr inbounds nuw i8, ptr %45, i64 3
  store ptr %53, ptr %10, align 8, !tbaa !11
  %54 = call ptr @OPENSSL_LH_retrieve(ptr noundef %0, ptr noundef nonnull %4) #12
  %55 = icmp eq ptr %54, null
  %56 = load ptr, ptr @bio_out, align 8, !tbaa !4
  %57 = load ptr, ptr %2, align 8, !tbaa !9
  br i1 %55, label %58, label %60

58:                                               ; preds = %52
  %59 = call i32 (ptr, ptr, ...) @BIO_printf(ptr noundef %56, ptr noundef nonnull @.str.32, ptr noundef %57) #12
  br label %65

60:                                               ; preds = %52
  %61 = getelementptr inbounds nuw i8, ptr %57, i64 3
  %62 = call i32 (ptr, ptr, ...) @BIO_printf(ptr noundef %56, ptr noundef nonnull @.str.32, ptr noundef nonnull %61) #12
  br label %65

.tail.thread:                                     ; preds = %sub_1, %sub_0, %.tail
  %63 = load ptr, ptr @bio_err, align 8, !tbaa !4
  %64 = call i32 (ptr, ptr, ...) @BIO_printf(ptr noundef %63, ptr noundef nonnull @.str.33, ptr noundef nonnull %45) #12
  br label %65

65:                                               ; preds = %3, %6, %.tail.thread, %60, %58, %41
  %.018 = phi i32 [ %44, %41 ], [ 0, %58 ], [ 1, %60 ], [ 1, %.tail.thread ], [ 0, %6 ], [ 0, %3 ]
  call void @llvm.lifetime.end.p0(i64 48, ptr nonnull %4) #12
  ret i32 %.018
}